; ModuleID = '44/102.c'
source_filename = "44/102.c"
target datalayout = "e-m:e-p270:32:32-p271:32:32-p272:64:64-i64:64-f80:128-n8:16:32:64-S128"
target triple = "x86_64-pc-linux-gnu"

@.str = private unnamed_addr constant [3 x i8] c"%d\00", align 1
@.str.1 = private unnamed_addr constant [4 x i8] c"%d\0A\00", align 1

; Function Attrs: noinline nounwind uwtable
define dso_local i32 @reverse(i32 %0) #0 {
  %2 = alloca i32, align 4
  %3 = alloca i32, align 4
  %4 = alloca [100 x i32], align 16
  %5 = alloca i32, align 4
  %6 = alloca i32, align 4
  %7 = alloca i32, align 4
  store i32 %0, i32* %3, align 4
  store i32 10, i32* %5, align 4
  store i32 0, i32* %7, align 4
  %8 = load i32, i32* %3, align 4
  %9 = icmp slt i32 %8, 0
  br i1 %9, label %10, label %40

10:                                               ; preds = %1
  %11 = load i32, i32* %3, align 4
  %12 = mul nsw i32 %11, -1
  store i32 %12, i32* %3, align 4
  store i32 1, i32* %6, align 4
  br label %13

13:                                               ; preds = %34, %10
  %14 = load i32, i32* %3, align 4
  %15 = load i32, i32* %5, align 4
  %16 = srem i32 %14, %15
  %17 = load i32, i32* %6, align 4
  %18 = sext i32 %17 to i64
  %19 = getelementptr inbounds [100 x i32], [100 x i32]* %4, i64 0, i64 %18
  store i32 %16, i32* %19, align 4
  %20 = load i32, i32* %6, align 4
  %21 = sext i32 %20 to i64
  %22 = getelementptr inbounds [100 x i32], [100 x i32]* %4, i64 0, i64 %21
  %23 = load i32, i32* %22, align 4
  %24 = load i32, i32* %7, align 4
  %25 = mul nsw i32 %24, 10
  %26 = add nsw i32 %23, %25
  store i32 %26, i32* %7, align 4
  %27 = load i32, i32* %3, align 4
  %28 = load i32, i32* %5, align 4
  %29 = sdiv i32 %27, %28
  store i32 %29, i32* %3, align 4
  %30 = load i32, i32* %3, align 4
  %31 = icmp eq i32 %30, 0
  br i1 %31, label %32, label %33

32:                                               ; preds = %13
  br label %37

33:                                               ; preds = %13
  br label %34

34:                                               ; preds = %33
  %35 = load i32, i32* %6, align 4
  %36 = add nsw i32 %35, 1
  store i32 %36, i32* %6, align 4
  br label %13

37:                                               ; preds = %32
  %38 = load i32, i32* %7, align 4
  %39 = sub nsw i32 0, %38
  store i32 %39, i32* %2, align 4
  br label %68

40:                                               ; preds = %1
  store i32 1, i32* %6, align 4
  br label %41

41:                                               ; preds = %62, %40
  %42 = load i32, i32* %3, align 4
  %43 = load i32, i32* %5, align 4
  %44 = srem i32 %42, %43
  %45 = load i32, i32* %6, align 4
  %46 = sext i32 %45 to i64
  %47 = getelementptr inbounds [100 x i32], [100 x i32]* %4, i64 0, i64 %46
  store i32 %44, i32* %47, align 4
  %48 = load i32, i32* %6, align 4
  %49 = sext i32 %48 to i64
  %50 = getelementptr inbounds [100 x i32], [100 x i32]* %4, i64 0, i64 %49
  %51 = load i32, i32* %50, align 4
  %52 = load i32, i32* %7, align 4
  %53 = mul nsw i32 %52, 10
  %54 = add nsw i32 %51, %53
  store i32 %54, i32* %7, align 4
  %55 = load i32, i32* %3, align 4
  %56 = load i32, i32* %5, align 4
  %57 = sdiv i32 %55, %56
  store i32 %57, i32* %3, align 4
  %58 = load i32, i32* %3, align 4
  %59 = icmp eq i32 %58, 0
  br i1 %59, label %60, label %61

60:                                               ; preds = %41
  br label %65

61:                                               ; preds = %41
  br label %62

62:                                               ; preds = %61
  %63 = load i32, i32* %6, align 4
  %64 = add nsw i32 %63, 1
  store i32 %64, i32* %6, align 4
  br label %41

65:                                               ; preds = %60
  br label %66

66:                                               ; preds = %65
  %67 = load i32, i32* %7, align 4
  store i32 %67, i32* %2, align 4
  br label %68

68:                                               ; preds = %66, %37
  %69 = load i32, i32* %2, align 4
  ret i32 %69
}

; Function Attrs: noinline nounwind uwtable
define dso_local i32 @main() #0 {
  %1 = alloca i32, align 4
  %2 = alloca [6 x i32], align 16
  %3 = alloca i32, align 4
  store i32 0, i32* %1, align 4
  store i32 0, i32* %3, align 4
  br label %4

4:                                                ; preds = %12, %0
  %5 = load i32, i32* %3, align 4
  %6 = icmp sle i32 %5, 5
  br i1 %6, label %7, label %15

7:                                                ; preds = %4
  %8 = load i32, i32* %3, align 4
  %9 = sext i32 %8 to i64
  %10 = getelementptr inbounds [6 x i32], [6 x i32]* %2, i64 0, i64 %9
  %11 = call i32 (i8*, ...) @__isoc99_scanf(i8* getelementptr inbounds ([3 x i8], [3 x i8]* @.str, i64 0, i64 0), i32* %10)
  br label %12

12:                                               ; preds = %7
  %13 = load i32, i32* %3, align 4
  %14 = add nsw i32 %13, 1
  store i32 %14, i32* %3, align 4
  br label %4

15:                                               ; preds = %4
  store i32 0, i32* %3, align 4
  br label %16

16:                                               ; preds = %26, %15
  %17 = load i32, i32* %3, align 4
  %18 = icmp sle i32 %17, 5
  br i1 %18, label %19, label %29

19:                                               ; preds = %16
  %20 = load i32, i32* %3, align 4
  %21 = sext i32 %20 to i64
  %22 = getelementptr inbounds [6 x i32], [6 x i32]* %2, i64 0, i64 %21
  %23 = load i32, i32* %22, align 4
  %24 = call i32 @reverse(i32 %23)
  %25 = call i32 (i8*, ...) @printf(i8* getelementptr inbounds ([4 x i8], [4 x i8]* @.str.1, i64 0, i64 0), i32 %24)
  br label %26

26:                                               ; preds = %19
  %27 = load i32, i32* %3, align 4
  %28 = add nsw i32 %27, 1
  store i32 %28, i32* %3, align 4
  br label %16

29:                                               ; preds = %16
  %30 = call i32 @getchar()
  %31 = call i32 @getchar()
  %32 = call i32 @getchar()
  %33 = load i32, i32* %1, align 4
  ret i32 %33
}

declare dso_local i32 @__isoc99_scanf(i8*, ...) #1

declare dso_local i32 @printf(i8*, ...) #1

declare dso_local i32 @getchar() #1


!llvm.module.flags = !{!0}
!llvm.ident = !{!1}

!0 = !{i32 1, !"wchar_size", i32 4}
!1 = !{!"clang version 10.0.0-4ubuntu1 "}
