; ModuleID = 'source-C-CXX/43/102.c'
source_filename = "source-C-CXX/43/102.c"
target datalayout = "e-m:e-p270:32:32-p271:32:32-p272:64:64-i64:64-f80:128-n8:16:32:64-S128"
target triple = "x86_64-pc-linux-gnu"

%struct._IO_FILE = type { i32, i8*, i8*, i8*, i8*, i8*, i8*, i8*, i8*, i8*, i8*, i8*, %struct._IO_marker*, %struct._IO_FILE*, i32, i32, i64, i16, i8, [1 x i8], i8*, i64, %struct._IO_codecvt*, %struct._IO_wide_data*, %struct._IO_FILE*, i8*, i64, i32, [20 x i8] }
%struct._IO_marker = type opaque
%struct._IO_codecvt = type opaque
%struct._IO_wide_data = type opaque

@.str = private unnamed_addr constant [3 x i8] c"%d\00", align 1
@.str.1 = private unnamed_addr constant [4 x i8] c"%d\0A\00", align 1
@stdin = external local_unnamed_addr global %struct._IO_FILE*, align 8

; Function Attrs: nofree norecurse nosync nounwind readnone sspstrong uwtable
define dso_local i32 @reverse(i32 %0) local_unnamed_addr #0 {
  %2 = icmp slt i32 %0, 0
  br i1 %2, label %6, label %3

3:                                                ; preds = %1
  %4 = urem i32 %0, 10
  %5 = icmp ult i32 %0, 10
  br i1 %5, label %32, label %23

6:                                                ; preds = %1
  %7 = sub nsw i32 0, %0
  %8 = urem i32 %7, 10
  %9 = sub i32 9, %0
  %10 = icmp ult i32 %9, 19
  br i1 %10, label %20, label %11

11:                                               ; preds = %6, %11
  %12 = phi i32 [ %17, %11 ], [ %8, %6 ]
  %13 = phi i32 [ %14, %11 ], [ %7, %6 ]
  %14 = sdiv i32 %13, 10
  %15 = srem i32 %14, 10
  %16 = mul nsw i32 %12, 10
  %17 = add nsw i32 %16, %15
  %18 = add nsw i32 %14, 9
  %19 = icmp ult i32 %18, 19
  br i1 %19, label %20, label %11

20:                                               ; preds = %11, %6
  %21 = phi i32 [ %8, %6 ], [ %17, %11 ]
  %22 = sub nsw i32 0, %21
  br label %32

23:                                               ; preds = %3, %23
  %24 = phi i32 [ %29, %23 ], [ %4, %3 ]
  %25 = phi i32 [ %26, %23 ], [ %0, %3 ]
  %26 = sdiv i32 %25, 10
  %27 = srem i32 %26, 10
  %28 = mul nsw i32 %24, 10
  %29 = add nsw i32 %28, %27
  %30 = add nsw i32 %26, 9
  %31 = icmp ult i32 %30, 19
  br i1 %31, label %32, label %23

32:                                               ; preds = %23, %3, %20
  %33 = phi i32 [ %22, %20 ], [ %4, %3 ], [ %29, %23 ]
  ret i32 %33
}

; Function Attrs: argmemonly mustprogress nofree nosync nounwind willreturn
declare void @llvm.lifetime.start.p0i8(i64 immarg, i8* nocapture) #1

; Function Attrs: argmemonly mustprogress nofree nosync nounwind willreturn
declare void @llvm.lifetime.end.p0i8(i64 immarg, i8* nocapture) #1

; Function Attrs: nofree nounwind sspstrong uwtable
define dso_local i32 @main() local_unnamed_addr #2 {
  %1 = alloca [6 x i32], align 16
  %2 = bitcast [6 x i32]* %1 to i8*
  call void @llvm.lifetime.start.p0i8(i64 24, i8* nonnull %2) #4
  %3 = getelementptr inbounds [6 x i32], [6 x i32]* %1, i64 0, i64 0
  %4 = call i32 (i8*, ...) @__isoc99_scanf(i8* getelementptr inbounds ([3 x i8], [3 x i8]* @.str, i64 0, i64 0), i32* nonnull %3)
  %5 = getelementptr inbounds [6 x i32], [6 x i32]* %1, i64 0, i64 1
  %6 = call i32 (i8*, ...) @__isoc99_scanf(i8* getelementptr inbounds ([3 x i8], [3 x i8]* @.str, i64 0, i64 0), i32* nonnull %5)
  %7 = getelementptr inbounds [6 x i32], [6 x i32]* %1, i64 0, i64 2
  %8 = call i32 (i8*, ...) @__isoc99_scanf(i8* getelementptr inbounds ([3 x i8], [3 x i8]* @.str, i64 0, i64 0), i32* nonnull %7)
  %9 = getelementptr inbounds [6 x i32], [6 x i32]* %1, i64 0, i64 3
  %10 = call i32 (i8*, ...) @__isoc99_scanf(i8* getelementptr inbounds ([3 x i8], [3 x i8]* @.str, i64 0, i64 0), i32* nonnull %9)
  %11 = getelementptr inbounds [6 x i32], [6 x i32]* %1, i64 0, i64 4
  %12 = call i32 (i8*, ...) @__isoc99_scanf(i8* getelementptr inbounds ([3 x i8], [3 x i8]* @.str, i64 0, i64 0), i32* nonnull %11)
  %13 = getelementptr inbounds [6 x i32], [6 x i32]* %1, i64 0, i64 5
  %14 = call i32 (i8*, ...) @__isoc99_scanf(i8* getelementptr inbounds ([3 x i8], [3 x i8]* @.str, i64 0, i64 0), i32* nonnull %13)
  br label %15

15:                                               ; preds = %0, %49
  %16 = phi i64 [ 0, %0 ], [ %52, %49 ]
  %17 = getelementptr inbounds [6 x i32], [6 x i32]* %1, i64 0, i64 %16
  %18 = load i32, i32* %17, align 4, !tbaa !5
  %19 = icmp slt i32 %18, 0
  br i1 %19, label %23, label %20

20:                                               ; preds = %15
  %21 = urem i32 %18, 10
  %22 = icmp ult i32 %18, 10
  br i1 %22, label %49, label %40

23:                                               ; preds = %15
  %24 = sub nsw i32 0, %18
  %25 = urem i32 %24, 10
  %26 = sub i32 9, %18
  %27 = icmp ult i32 %26, 19
  br i1 %27, label %37, label %28

28:                                               ; preds = %23, %28
  %29 = phi i32 [ %34, %28 ], [ %25, %23 ]
  %30 = phi i32 [ %31, %28 ], [ %24, %23 ]
  %31 = sdiv i32 %30, 10
  %32 = srem i32 %31, 10
  %33 = mul nsw i32 %29, 10
  %34 = add nsw i32 %32, %33
  %35 = add nsw i32 %31, 9
  %36 = icmp ult i32 %35, 19
  br i1 %36, label %37, label %28

37:                                               ; preds = %28, %23
  %38 = phi i32 [ %25, %23 ], [ %34, %28 ]
  %39 = sub nsw i32 0, %38
  br label %49

40:                                               ; preds = %20, %40
  %41 = phi i32 [ %46, %40 ], [ %21, %20 ]
  %42 = phi i32 [ %43, %40 ], [ %18, %20 ]
  %43 = sdiv i32 %42, 10
  %44 = srem i32 %43, 10
  %45 = mul nsw i32 %41, 10
  %46 = add nsw i32 %44, %45
  %47 = add nsw i32 %43, 9
  %48 = icmp ult i32 %47, 19
  br i1 %48, label %49, label %40

49:                                               ; preds = %40, %20, %37
  %50 = phi i32 [ %39, %37 ], [ %21, %20 ], [ %46, %40 ]
  %51 = call i32 (i8*, ...) @printf(i8* nonnull dereferenceable(1) getelementptr inbounds ([4 x i8], [4 x i8]* @.str.1, i64 0, i64 0), i32 %50)
  %52 = add nuw nsw i64 %16, 1
  %53 = icmp eq i64 %52, 6
  br i1 %53, label %54, label %15, !llvm.loop !9

54:                                               ; preds = %49
  %55 = load %struct._IO_FILE*, %struct._IO_FILE** @stdin, align 8, !tbaa !11
  %56 = call i32 @getc(%struct._IO_FILE* %55) #4
  %57 = load %struct._IO_FILE*, %struct._IO_FILE** @stdin, align 8, !tbaa !11
  %58 = call i32 @getc(%struct._IO_FILE* %57) #4
  %59 = load %struct._IO_FILE*, %struct._IO_FILE** @stdin, align 8, !tbaa !11
  %60 = call i32 @getc(%struct._IO_FILE* %59) #4
  call void @llvm.lifetime.end.p0i8(i64 24, i8* nonnull %2) #4
  ret i32 0
}

; Function Attrs: nofree nounwind
declare noundef i32 @__isoc99_scanf(i8* nocapture noundef readonly, ...) local_unnamed_addr #3

; Function Attrs: nofree nounwind
declare noundef i32 @printf(i8* nocapture noundef readonly, ...) local_unnamed_addr #3

; Function Attrs: nofree nounwind
declare noundef i32 @getc(%struct._IO_FILE* nocapture noundef) local_unnamed_addr #3


!llvm.module.flags = !{!0, !1, !2, !3}
!llvm.ident = !{!4}

!0 = !{i32 1, !"wchar_size", i32 4}
!1 = !{i32 7, !"PIC Level", i32 2}
!2 = !{i32 7, !"PIE Level", i32 2}
!3 = !{i32 7, !"uwtable", i32 1}
!4 = !{!"clang version 13.0.0"}
!5 = !{!6, !6, i64 0}
!6 = !{!"int", !7, i64 0}
!7 = !{!"omnipotent char", !8, i64 0}
!8 = !{!"Simple C/C++ TBAA"}
!9 = distinct !{!9, !10}
!10 = !{!"llvm.loop.mustprogress"}
!11 = !{!12, !12, i64 0}
!12 = !{!"any pointer", !7, i64 0}
